target datalayout = "e-m:e-p270:32:32-p271:32:32-p272:64:64-i64:64-i128:128-f80:128-n8:16:32:64-S128"
target triple = "x86_64-pc-linux-gnu"

%struct.hb_ot_map_builder_t = type { ptr, %struct.hb_segment_properties_t, i8, [2 x i32], [2 x i8], [2 x i32], [2 x i32], [2 x i32], %struct.hb_vector_t.4, [2 x %struct.hb_vector_t.5] }
%struct.hb_segment_properties_t = type { i32, i32, ptr, ptr, ptr }
%struct.hb_vector_t.4 = type { i32, i32, ptr }
%struct.hb_vector_t.5 = type { i32, i32, ptr }
%"struct.hb_ot_map_builder_t::feature_info_t" = type { i32, i32, i32, i32, i32, [2 x i32] }

; Function Attrs: mustprogress nounwind uwtable
define internal noundef i32 @_Zan25hb_ot_map_feature_flags_tS_(i32 noundef %0, i32 noundef %1) #1 {
  %3 = alloca i32, align 4
  %4 = alloca i32, align 4
  store i32 %0, ptr %3, align 4
  store i32 %1, ptr %4, align 4
  %5 = load i32, ptr %3, align 4
  %6 = load i32, ptr %4, align 4
  %7 = and i32 %5, %6
  ret i32 %7
}

; Function Attrs: mustprogress uwtable
define hidden void @_ZN19hb_ot_map_builder_t11add_featureEj25hb_ot_map_feature_flags_tj(ptr noundef nonnull align 8 dereferenceable(128) %0, i32 noundef %1, i32 noundef %2, i32 noundef %3) #0 align 2 {
  %5 = alloca ptr, align 8
  %6 = alloca i32, align 4
  %7 = alloca i32, align 4
  %8 = alloca i32, align 4
  %9 = alloca ptr, align 8
  store ptr %0, ptr %5, align 8
  store i32 %1, ptr %6, align 4
  store i32 %2, ptr %7, align 4
  store i32 %3, ptr %8, align 4
  %10 = load ptr, ptr %5, align 8
  %11 = load i32, ptr %6, align 4
  %12 = icmp ne i32 %11, 0
  br i1 %12, label %14, label %13

13:                                               ; preds = %4
  br label %53

14:                                               ; preds = %4
  %15 = getelementptr inbounds %struct.hb_ot_map_builder_t, ptr %10, i32 0, i32 8
  %16 = call noundef ptr @_ZN11hb_vector_tIN19hb_ot_map_builder_t14feature_info_tELb0EE4pushEv(ptr noundef nonnull align 8 dereferenceable(16) %15)
  store ptr %16, ptr %9, align 8
  %17 = load i32, ptr %6, align 4
  %18 = load ptr, ptr %9, align 8
  %19 = getelementptr inbounds %"struct.hb_ot_map_builder_t::feature_info_t", ptr %18, i32 0, i32 0
  store i32 %17, ptr %19, align 4
  %20 = getelementptr inbounds %struct.hb_ot_map_builder_t, ptr %10, i32 0, i32 8
  %21 = getelementptr inbounds %struct.hb_vector_t.4, ptr %20, i32 0, i32 1
  %22 = load i32, ptr %21, align 4
  %23 = load ptr, ptr %9, align 8
  %24 = getelementptr inbounds %"struct.hb_ot_map_builder_t::feature_info_t", ptr %23, i32 0, i32 1
  store i32 %22, ptr %24, align 4
  %25 = load i32, ptr %8, align 4
  %26 = load ptr, ptr %9, align 8
  %27 = getelementptr inbounds %"struct.hb_ot_map_builder_t::feature_info_t", ptr %26, i32 0, i32 2
  store i32 %25, ptr %27, align 4
  %28 = load i32, ptr %7, align 4
  %29 = load ptr, ptr %9, align 8
  %30 = getelementptr inbounds %"struct.hb_ot_map_builder_t::feature_info_t", ptr %29, i32 0, i32 3
  store i32 %28, ptr %30, align 4
  %31 = load i32, ptr %7, align 4
  %32 = call noundef i32 @_Zan25hb_ot_map_feature_flags_tS_(i32 noundef %31, i32 noundef 1)
  %33 = icmp ne i32 %32, 0
  br i1 %33, label %34, label %36

34:                                               ; preds = %14
  %35 = load i32, ptr %8, align 4
  br label %37

36:                                               ; preds = %14
  br label %37

37:                                               ; preds = %36, %34
  %38 = phi i32 [ %35, %34 ], [ 0, %36 ]
  %39 = load ptr, ptr %9, align 8
  %40 = getelementptr inbounds %"struct.hb_ot_map_builder_t::feature_info_t", ptr %39, i32 0, i32 4
  store i32 %38, ptr %40, align 4
  %41 = getelementptr inbounds %struct.hb_ot_map_builder_t, ptr %10, i32 0, i32 7
  %42 = getelementptr inbounds [2 x i32], ptr %41, i64 0, i64 0
  %43 = load i32, ptr %42, align 8
  %44 = load ptr, ptr %9, align 8
  %45 = getelementptr inbounds %"struct.hb_ot_map_builder_t::feature_info_t", ptr %44, i32 0, i32 5
  %46 = getelementptr inbounds [2 x i32], ptr %45, i64 0, i64 0
  store i32 %43, ptr %46, align 4
  %47 = getelementptr inbounds %struct.hb_ot_map_builder_t, ptr %10, i32 0, i32 7
  %48 = getelementptr inbounds [2 x i32], ptr %47, i64 0, i64 1
  %49 = load i32, ptr %48, align 4
  %50 = load ptr, ptr %9, align 8
  %51 = getelementptr inbounds %"struct.hb_ot_map_builder_t::feature_info_t", ptr %50, i32 0, i32 5
  %52 = getelementptr inbounds [2 x i32], ptr %51, i64 0, i64 1
  store i32 %49, ptr %52, align 4
  br label %53

53:                                               ; preds = %37, %13
  ret void
}