; Function Attrs: mustprogress uwtable
define hidden void @_ZN19hb_ot_map_builder_t11add_featureEj25hb_ot_map_feature_flags_tj(ptr noundef nonnull align 8 dereferenceable(128) %0, i32 noundef %1, i32 noundef %2, i32 noundef %3) local_unnamed_addr #0 align 2 {
  %.not = icmp eq i32 %1, 0
  br i1 %.not, label %22, label %5

5:                                                ; preds = %4
  %6 = getelementptr inbounds i8, ptr %0, i64 80
  %7 = tail call noundef ptr @_ZN11hb_vector_tIN19hb_ot_map_builder_t14feature_info_tELb0EE4pushEv(ptr noundef nonnull align 8 dereferenceable(16) %6)
  store i32 %1, ptr %7, align 4
  %8 = getelementptr inbounds i8, ptr %0, i64 84
  %9 = load i32, ptr %8, align 4
  %10 = getelementptr inbounds i8, ptr %7, i64 4
  store i32 %9, ptr %10, align 4
  %11 = getelementptr inbounds i8, ptr %7, i64 8
  store i32 %3, ptr %11, align 4
  %12 = getelementptr inbounds i8, ptr %7, i64 12
  store i32 %2, ptr %12, align 4
  %13 = and i32 %2, 1
  %.not13 = icmp eq i32 %13, 0
  %14 = select i1 %.not13, i32 0, i32 %3
  %15 = getelementptr inbounds i8, ptr %7, i64 16
  store i32 %14, ptr %15, align 4
  %16 = getelementptr inbounds i8, ptr %0, i64 72
  %17 = load i32, ptr %16, align 8
  %18 = getelementptr inbounds i8, ptr %7, i64 20
  store i32 %17, ptr %18, align 4
  %19 = getelementptr inbounds i8, ptr %0, i64 76
  %20 = load i32, ptr %19, align 4
  %21 = getelementptr inbounds i8, ptr %7, i64 24
  store i32 %20, ptr %21, align 4
  br label %22

22:                                               ; preds = %4, %5
  ret void
}